target datalayout = "e-m:e-p270:32:32-p271:32:32-p272:64:64-i64:64-i128:128-f80:128-n8:16:32:64-S128"
target triple = "x86_64-pc-linux-gnu"

%struct.AVPixFmtDescriptor = type { ptr, i8, i8, i8, i64, [4 x %struct.AVComponentDescriptor], ptr }
%struct.AVComponentDescriptor = type { i32, i32, i32, i32, i32 }

; Function Attrs: nounwind uwtable
define internal i32 @query_formats(ptr noundef %0, ptr noundef %1, ptr noundef %2) #0 {
  %4 = alloca i32, align 4
  %5 = alloca ptr, align 8
  %6 = alloca ptr, align 8
  %7 = alloca ptr, align 8
  %8 = alloca ptr, align 8
  %9 = alloca i32, align 4
  %10 = alloca i32, align 4
  %11 = alloca ptr, align 8
  %12 = alloca i32, align 4
  store ptr %0, ptr %5, align 8, !tbaa !18
  store ptr %1, ptr %6, align 8, !tbaa !46
  store ptr %2, ptr %7, align 8, !tbaa !46
  call void @llvm.lifetime.start.p0(i64 8, ptr %8) #9
  store ptr null, ptr %8, align 8, !tbaa !48
  call void @llvm.lifetime.start.p0(i64 4, ptr %9) #9
  call void @llvm.lifetime.start.p0(i64 4, ptr %10) #9
  store i32 0, ptr %9, align 4, !tbaa !9
  br label %13

13:                                               ; preds = %44, %3
  %14 = load i32, ptr %9, align 4, !tbaa !9
  %15 = call ptr @av_pix_fmt_desc_get(i32 noundef %14)
  %16 = icmp ne ptr %15, null
  br i1 %16, label %17, label %47

17:                                               ; preds = %13
  call void @llvm.lifetime.start.p0(i64 8, ptr %11) #9
  %18 = load i32, ptr %9, align 4, !tbaa !9
  %19 = call ptr @av_pix_fmt_desc_get(i32 noundef %18)
  store ptr %19, ptr %11, align 8, !tbaa !50
  %20 = load ptr, ptr %11, align 8, !tbaa !50
  %21 = getelementptr inbounds nuw %struct.AVPixFmtDescriptor, ptr %20, i32 0, i32 4
  %22 = load i64, ptr %21, align 8, !tbaa !52
  %23 = and i64 %22, 16
  %24 = icmp ne i64 %23, 0
  br i1 %24, label %25, label %40

25:                                               ; preds = %17
  %26 = load ptr, ptr %11, align 8, !tbaa !50
  %27 = getelementptr inbounds nuw %struct.AVPixFmtDescriptor, ptr %26, i32 0, i32 5
  %28 = getelementptr inbounds [4 x %struct.AVComponentDescriptor], ptr %27, i64 0, i64 0
  %29 = getelementptr inbounds nuw %struct.AVComponentDescriptor, ptr %28, i32 0, i32 4
  %30 = load i32, ptr %29, align 8, !tbaa !55
  %31 = and i32 %30, 7
  %32 = icmp ne i32 %31, 0
  br i1 %32, label %40, label %33

33:                                               ; preds = %25
  %34 = load i32, ptr %9, align 4, !tbaa !9
  %35 = sext i32 %34 to i64
  %36 = call i32 @ff_add_format(ptr noundef %8, i64 noundef %35)
  store i32 %36, ptr %10, align 4, !tbaa !9
  %37 = icmp slt i32 %36, 0
  br i1 %37, label %38, label %40

38:                                               ; preds = %33
  %39 = load i32, ptr %10, align 4, !tbaa !9
  store i32 %39, ptr %4, align 4
  store i32 1, ptr %12, align 4
  br label %41

40:                                               ; preds = %33, %25, %17
  store i32 0, ptr %12, align 4
  br label %41

41:                                               ; preds = %40, %38
  call void @llvm.lifetime.end.p0(i64 8, ptr %11) #9
  %42 = load i32, ptr %12, align 4
  switch i32 %42, label %53 [
    i32 0, label %43
  ]

43:                                               ; preds = %41
  br label %44

44:                                               ; preds = %43
  %45 = load i32, ptr %9, align 4, !tbaa !9
  %46 = add nsw i32 %45, 1
  store i32 %46, ptr %9, align 4, !tbaa !9
  br label %13, !llvm.loop !57

47:                                               ; preds = %13
  %48 = load ptr, ptr %5, align 8, !tbaa !18
  %49 = load ptr, ptr %6, align 8, !tbaa !46
  %50 = load ptr, ptr %7, align 8, !tbaa !46
  %51 = load ptr, ptr %8, align 8, !tbaa !48
  %52 = call i32 @ff_set_common_formats2(ptr noundef %48, ptr noundef %49, ptr noundef %50, ptr noundef %51)
  store i32 %52, ptr %4, align 4
  store i32 1, ptr %12, align 4
  br label %53

53:                                               ; preds = %47, %41
  call void @llvm.lifetime.end.p0(i64 4, ptr %10) #9
  call void @llvm.lifetime.end.p0(i64 4, ptr %9) #9
  call void @llvm.lifetime.end.p0(i64 8, ptr %8) #9
  %54 = load i32, ptr %4, align 4
  ret i32 %54
}