; Function Attrs: nounwind uwtable
define internal i32 @query_formats(ptr noundef %0, ptr noundef %1, ptr noundef %2) #4 {
  %4 = alloca ptr, align 8
  call void @llvm.lifetime.start.p0(i64 8, ptr nonnull %4) #10
  store ptr null, ptr %4, align 8, !tbaa !39
  %5 = tail call ptr @av_pix_fmt_desc_get(i32 noundef 0) #10
  %.not19 = icmp eq ptr %5, null
  br i1 %.not19, label %._crit_edge, label %.lr.ph

.lr.ph:                                           ; preds = %3, %18
  %indvars.iv = phi i64 [ %indvars.iv.next, %18 ], [ 0, %3 ]
  %6 = trunc nuw nsw i64 %indvars.iv to i32
  %7 = call ptr @av_pix_fmt_desc_get(i32 noundef %6) #10
  %8 = getelementptr inbounds nuw i8, ptr %7, i64 16
  %9 = load i64, ptr %8, align 8, !tbaa !41
  %10 = and i64 %9, 16
  %.not14 = icmp eq i64 %10, 0
  br i1 %.not14, label %18, label %11

11:                                               ; preds = %.lr.ph
  %12 = getelementptr inbounds nuw i8, ptr %7, i64 40
  %13 = load i32, ptr %12, align 8, !tbaa !44
  %14 = and i32 %13, 7
  %.not15 = icmp eq i32 %14, 0
  br i1 %.not15, label %15, label %18

15:                                               ; preds = %11
  %16 = call i32 @ff_add_format(ptr noundef nonnull %4, i64 noundef %indvars.iv) #10
  %17 = icmp slt i32 %16, 0
  br i1 %17, label %.loopexit, label %18

18:                                               ; preds = %.lr.ph, %11, %15
  %indvars.iv.next = add nuw nsw i64 %indvars.iv, 1
  %19 = trunc nuw i64 %indvars.iv.next to i32
  %20 = call ptr @av_pix_fmt_desc_get(i32 noundef %19) #10
  %.not = icmp eq ptr %20, null
  br i1 %.not, label %._crit_edge.loopexit, label %.lr.ph, !llvm.loop !46

._crit_edge.loopexit:                             ; preds = %18
  %.pre = load ptr, ptr %4, align 8, !tbaa !39
  br label %._crit_edge

._crit_edge:                                      ; preds = %._crit_edge.loopexit, %3
  %21 = phi ptr [ %.pre, %._crit_edge.loopexit ], [ null, %3 ]
  %22 = call i32 @ff_set_common_formats2(ptr noundef %0, ptr noundef %1, ptr noundef %2, ptr noundef %21) #10
  br label %.loopexit

.loopexit:                                        ; preds = %15, %._crit_edge
  %.2 = phi i32 [ %22, %._crit_edge ], [ %16, %15 ]
  call void @llvm.lifetime.end.p0(i64 8, ptr nonnull %4) #10
  ret i32 %.2
}